target datalayout = "e-m:e-p270:32:32-p271:32:32-p272:64:64-i64:64-i128:128-f80:128-n8:16:32:64-S128"
target triple = "x86_64-pc-linux-gnu"

%class.G1Allocator = type { ptr, ptr, i8, i8, i64, ptr, ptr, %class.OldGCAllocRegion, ptr }
%class.OldGCAllocRegion = type { %class.G1GCAllocRegion.base, [7 x i8] }
%class.G1GCAllocRegion.base = type <{ %class.G1AllocRegion.base, [4 x i8], i64, ptr, i8 }>
%class.G1AllocRegion.base = type <{ ptr, ptr, i32, [4 x i8], ptr, i32 }>
%"struct.G1PLABAllocator::PLABData" = type <{ ptr, i64, i64, i64, i64, i64, i32, [4 x i8] }>
%class.G1PLABAllocator = type { ptr, ptr, [2 x %"struct.G1PLABAllocator::PLABData"], i64 }
%class.PLAB = type { [32 x i8], i64, ptr, ptr, ptr, ptr, i64, i64, i64, [32 x i8] }

; Function Attrs: mustprogress nounwind uwtable
define linkonce_odr hidden noundef i32 @_ZN11G1Allocator9num_nodesEv(ptr noundef nonnull align 8 dereferenceable(120) %0) #1 comdat align 2 {
  %2 = alloca ptr, align 8
  store ptr %0, ptr %2, align 8
  %3 = load ptr, ptr %2, align 8
  %4 = getelementptr inbounds %class.G1Allocator, ptr %3, i32 0, i32 4
  %5 = load i64, ptr %4, align 8
  %6 = trunc i64 %5 to i32
  ret i32 %6
}

; Function Attrs: mustprogress nounwind uwtable
define linkonce_odr hidden noundef i64 @_ZN4PLAB10undo_wasteEv(ptr noundef nonnull align 8 dereferenceable(128) %0) #1 comdat align 2 {
  %2 = alloca ptr, align 8
  store ptr %0, ptr %2, align 8
  %3 = load ptr, ptr %2, align 8
  %4 = getelementptr inbounds %class.PLAB, ptr %3, i32 0, i32 8
  %5 = load i64, ptr %4, align 8
  ret i64 %5
}

; Function Attrs: mustprogress nounwind uwtable
define linkonce_odr hidden noundef ptr @_ZNK15G1PLABAllocator12alloc_bufferEaj(ptr noundef nonnull align 8 dereferenceable(136) %0, i8 noundef signext %1, i32 noundef %2) #1 comdat align 2 {
  %4 = alloca ptr, align 8
  %5 = alloca ptr, align 8
  %6 = alloca i8, align 1
  %7 = alloca i32, align 4
  store ptr %0, ptr %5, align 8
  store i8 %1, ptr %6, align 1
  store i32 %2, ptr %7, align 4
  %8 = load ptr, ptr %5, align 8
  %9 = load i8, ptr %6, align 1
  %10 = sext i8 %9 to i32
  %11 = icmp eq i32 %10, 0
  br i1 %11, label %12, label %23

12:                                               ; preds = %3
  %13 = getelementptr inbounds %class.G1PLABAllocator, ptr %8, i32 0, i32 2
  %14 = load i8, ptr %6, align 1
  %15 = sext i8 %14 to i64
  %16 = getelementptr inbounds [2 x %"struct.G1PLABAllocator::PLABData"], ptr %13, i64 0, i64 %15
  %17 = getelementptr inbounds %"struct.G1PLABAllocator::PLABData", ptr %16, i32 0, i32 0
  %18 = load ptr, ptr %17, align 8
  %19 = load i32, ptr %7, align 4
  %20 = zext i32 %19 to i64
  %21 = getelementptr inbounds ptr, ptr %18, i64 %20
  %22 = load ptr, ptr %21, align 8
  store ptr %22, ptr %4, align 8
  br label %32

23:                                               ; preds = %3
  %24 = getelementptr inbounds %class.G1PLABAllocator, ptr %8, i32 0, i32 2
  %25 = load i8, ptr %6, align 1
  %26 = sext i8 %25 to i64
  %27 = getelementptr inbounds [2 x %"struct.G1PLABAllocator::PLABData"], ptr %24, i64 0, i64 %26
  %28 = getelementptr inbounds %"struct.G1PLABAllocator::PLABData", ptr %27, i32 0, i32 0
  %29 = load ptr, ptr %28, align 8
  %30 = getelementptr inbounds ptr, ptr %29, i64 0
  %31 = load ptr, ptr %30, align 8
  store ptr %31, ptr %4, align 8
  br label %32

32:                                               ; preds = %23, %12
  %33 = load ptr, ptr %4, align 8
  ret ptr %33
}

; Function Attrs: mustprogress nounwind uwtable
define linkonce_odr hidden noundef i32 @_ZNK15G1PLABAllocator20alloc_buffers_lengthEa(ptr noundef nonnull align 8 dereferenceable(136) %0, i8 noundef signext %1) #1 comdat align 2 {
  %3 = alloca i32, align 4
  %4 = alloca ptr, align 8
  %5 = alloca i8, align 1
  store ptr %0, ptr %4, align 8
  store i8 %1, ptr %5, align 1
  %6 = load ptr, ptr %4, align 8
  %7 = load i8, ptr %5, align 1
  %8 = sext i8 %7 to i32
  %9 = icmp eq i32 %8, 0
  br i1 %9, label %10, label %14

10:                                               ; preds = %2
  %11 = getelementptr inbounds %class.G1PLABAllocator, ptr %6, i32 0, i32 1
  %12 = load ptr, ptr %11, align 8
  %13 = call noundef i32 @_ZN11G1Allocator9num_nodesEv(ptr noundef nonnull align 8 dereferenceable(120) %12)
  store i32 %13, ptr %3, align 4
  br label %15

14:                                               ; preds = %2
  store i32 1, ptr %3, align 4
  br label %15

15:                                               ; preds = %14, %10
  %16 = load i32, ptr %3, align 4
  ret i32 %16
}

; Function Attrs: mustprogress nounwind uwtable
define hidden noundef i64 @_ZNK15G1PLABAllocator10undo_wasteEv(ptr noundef nonnull align 8 dereferenceable(136) %0) #1 align 2 {
  %2 = alloca ptr, align 8
  %3 = alloca i64, align 8
  %4 = alloca i8, align 1
  %5 = alloca i32, align 4
  %6 = alloca ptr, align 8
  store ptr %0, ptr %2, align 8
  %7 = load ptr, ptr %2, align 8
  store i64 0, ptr %3, align 8
  store i8 0, ptr %4, align 1
  br label %8

8:                                                ; preds = %34, %1
  %9 = load i8, ptr %4, align 1
  %10 = sext i8 %9 to i32
  %11 = icmp slt i32 %10, 2
  br i1 %11, label %12, label %37

12:                                               ; preds = %8
  store i32 0, ptr %5, align 4
  br label %13

13:                                               ; preds = %30, %12
  %14 = load i32, ptr %5, align 4
  %15 = load i8, ptr %4, align 1
  %16 = call noundef i32 @_ZNK15G1PLABAllocator20alloc_buffers_lengthEa(ptr noundef nonnull align 8 dereferenceable(136) %7, i8 noundef signext %15)
  %17 = icmp ult i32 %14, %16
  br i1 %17, label %18, label %33

18:                                               ; preds = %13
  %19 = load i8, ptr %4, align 1
  %20 = load i32, ptr %5, align 4
  %21 = call noundef ptr @_ZNK15G1PLABAllocator12alloc_bufferEaj(ptr noundef nonnull align 8 dereferenceable(136) %7, i8 noundef signext %19, i32 noundef %20)
  store ptr %21, ptr %6, align 8
  %22 = load ptr, ptr %6, align 8
  %23 = icmp ne ptr %22, null
  br i1 %23, label %24, label %29

24:                                               ; preds = %18
  %25 = load ptr, ptr %6, align 8
  %26 = call noundef i64 @_ZN4PLAB10undo_wasteEv(ptr noundef nonnull align 8 dereferenceable(128) %25)
  %27 = load i64, ptr %3, align 8
  %28 = add i64 %27, %26
  store i64 %28, ptr %3, align 8
  br label %29

29:                                               ; preds = %24, %18
  br label %30

30:                                               ; preds = %29
  %31 = load i32, ptr %5, align 4
  %32 = add i32 %31, 1
  store i32 %32, ptr %5, align 4
  br label %13, !llvm.loop !22

33:                                               ; preds = %13
  br label %34

34:                                               ; preds = %33
  %35 = load i8, ptr %4, align 1
  %36 = add i8 %35, 1
  store i8 %36, ptr %4, align 1
  br label %8, !llvm.loop !23

37:                                               ; preds = %8
  %38 = load i64, ptr %3, align 8
  ret i64 %38
}