; Function Attrs: mustprogress nofree norecurse nosync nounwind willreturn memory(read, inaccessiblemem: none) uwtable
define hidden noundef i64 @_ZNK15G1PLABAllocator10undo_wasteEv(ptr nocapture noundef nonnull readonly align 8 dereferenceable(136) %0) local_unnamed_addr #7 align 2 {
  %2 = getelementptr inbounds i8, ptr %0, i64 8
  %3 = getelementptr inbounds i8, ptr %0, i64 16
  %4 = load ptr, ptr %2, align 8
  %5 = getelementptr inbounds i8, ptr %4, i64 24
  %6 = load ptr, ptr %3, align 8
  br label %.preheader

.preheader:                                       ; preds = %1, %.split.us
  %indvars.iv28 = phi i64 [ 0, %1 ], [ %indvars.iv.next29, %.split.us ]
  %.025 = phi i64 [ 0, %1 ], [ %.us-phi, %.split.us ]
  %7 = icmp eq i64 %indvars.iv28, 0
  br i1 %7, label %.preheader.split.us, label %.preheader.split

.preheader.split.us:                              ; preds = %.preheader
  %8 = load i64, ptr %5, align 8
  %9 = and i64 %8, 4294967295
  %.not26 = icmp eq i64 %9, 0
  br i1 %.not26, label %.split.us, label %_ZNK15G1PLABAllocator12alloc_bufferEaj.exit.us.preheader

_ZNK15G1PLABAllocator12alloc_bufferEaj.exit.us.preheader: ; preds = %.preheader.split.us
  %wide.trip.count = and i64 %8, 4294967295
  br label %_ZNK15G1PLABAllocator12alloc_bufferEaj.exit.us

_ZNK15G1PLABAllocator12alloc_bufferEaj.exit.us:   ; preds = %_ZNK15G1PLABAllocator12alloc_bufferEaj.exit.us.preheader, %_ZNK15G1PLABAllocator20alloc_buffers_lengthEa.exit.us
  %indvars.iv = phi i64 [ 0, %_ZNK15G1PLABAllocator12alloc_bufferEaj.exit.us.preheader ], [ %indvars.iv.next, %_ZNK15G1PLABAllocator20alloc_buffers_lengthEa.exit.us ]
  %.1.us23 = phi i64 [ %.025, %_ZNK15G1PLABAllocator12alloc_bufferEaj.exit.us.preheader ], [ %.2.us, %_ZNK15G1PLABAllocator20alloc_buffers_lengthEa.exit.us ]
  %10 = getelementptr inbounds ptr, ptr %6, i64 %indvars.iv
  %.0.i14.us = load ptr, ptr %10, align 8
  %.not.us = icmp eq ptr %.0.i14.us, null
  br i1 %.not.us, label %_ZNK15G1PLABAllocator20alloc_buffers_lengthEa.exit.us, label %11

11:                                               ; preds = %_ZNK15G1PLABAllocator12alloc_bufferEaj.exit.us
  %12 = getelementptr inbounds i8, ptr %.0.i14.us, i64 88
  %13 = load i64, ptr %12, align 8
  %14 = add i64 %13, %.1.us23
  br label %_ZNK15G1PLABAllocator20alloc_buffers_lengthEa.exit.us

_ZNK15G1PLABAllocator20alloc_buffers_lengthEa.exit.us: ; preds = %11, %_ZNK15G1PLABAllocator12alloc_bufferEaj.exit.us
  %.2.us = phi i64 [ %14, %11 ], [ %.1.us23, %_ZNK15G1PLABAllocator12alloc_bufferEaj.exit.us ]
  %indvars.iv.next = add nuw nsw i64 %indvars.iv, 1
  %exitcond.not = icmp eq i64 %indvars.iv.next, %wide.trip.count
  br i1 %exitcond.not, label %.split.us, label %_ZNK15G1PLABAllocator12alloc_bufferEaj.exit.us, !llvm.loop !23

.preheader.split:                                 ; preds = %.preheader
  %15 = getelementptr inbounds [2 x %"struct.G1PLABAllocator::PLABData"], ptr %3, i64 0, i64 %indvars.iv28
  %16 = load ptr, ptr %15, align 8
  %.0.i14 = load ptr, ptr %16, align 8
  %.not = icmp eq ptr %.0.i14, null
  br i1 %.not, label %.split.us, label %.preheader.split.split

.preheader.split.split:                           ; preds = %.preheader.split
  %17 = getelementptr inbounds i8, ptr %.0.i14, i64 88
  %18 = load i64, ptr %17, align 8
  %19 = add i64 %18, %.025
  br label %.split.us

.split.us:                                        ; preds = %_ZNK15G1PLABAllocator20alloc_buffers_lengthEa.exit.us, %.preheader.split, %.preheader.split.split, %.preheader.split.us
  %.us-phi = phi i64 [ %.025, %.preheader.split.us ], [ %19, %.preheader.split.split ], [ %.025, %.preheader.split ], [ %.2.us, %_ZNK15G1PLABAllocator20alloc_buffers_lengthEa.exit.us ]
  %indvars.iv.next29 = add nuw nsw i64 %indvars.iv28, 1
  %exitcond31.not = icmp eq i64 %indvars.iv.next29, 2
  br i1 %exitcond31.not, label %20, label %.preheader, !llvm.loop !24

20:                                               ; preds = %.split.us
  ret i64 %.us-phi
}